; Function Attrs: mustprogress uwtable
define noundef ptr @text_window_get_text(ptr noundef readonly %0) local_unnamed_addr #2 personality ptr @__gxx_personality_v0 {
  %2 = alloca %class.QString, align 8
  %.not = icmp eq ptr %0, null
  br i1 %.not, label %21, label %3

3:                                                ; preds = %1
  %4 = load ptr, ptr %0, align 8
  call void @llvm.lifetime.start.p0(i64 24, ptr nonnull %2)
  %5 = getelementptr inbounds i8, ptr %4, i64 64
  %6 = load ptr, ptr %5, align 8
  %7 = getelementptr inbounds i8, ptr %6, i64 8
  %8 = load ptr, ptr %7, align 8
  call void @_ZNK9QTextEdit11toPlainTextEv(ptr dead_on_unwind nonnull writable sret(%class.QString) align 8 %2, ptr noundef nonnull align 8 dereferenceable(40) %8)
  %9 = invoke noundef ptr @_Z14qstring_strdup7QString(ptr noundef nonnull %2)
          to label %10 unwind label %15

10:                                               ; preds = %3
  %11 = load ptr, ptr %2, align 8
  %.not.i.i.i.i = icmp eq ptr %11, null
  br i1 %.not.i.i.i.i, label %_ZN16FunnelTextDialog7getTextEv.exit, label %_ZN17QArrayDataPointerIDsE5derefEv.exit.i.i.i

_ZN17QArrayDataPointerIDsE5derefEv.exit.i.i.i:    ; preds = %10
  %12 = atomicrmw sub ptr %11, i32 1 seq_cst, align 4
  %.not.i.i.i = icmp eq i32 %12, 1
  br i1 %.not.i.i.i, label %13, label %_ZN16FunnelTextDialog7getTextEv.exit

13:                                               ; preds = %_ZN17QArrayDataPointerIDsE5derefEv.exit.i.i.i
  %14 = load ptr, ptr %2, align 8
  call void @_ZN10QArrayData10deallocateEPS_xx(ptr noundef %14, i64 noundef 2, i64 noundef 8) #22
  br label %_ZN16FunnelTextDialog7getTextEv.exit

15:                                               ; preds = %3
  %16 = landingpad { ptr, i32 }
          cleanup
  %17 = load ptr, ptr %2, align 8
  %.not.i.i.i2.i = icmp eq ptr %17, null
  br i1 %.not.i.i.i2.i, label %_ZN7QStringD2Ev.exit5.i, label %_ZN17QArrayDataPointerIDsE5derefEv.exit.i.i3.i

_ZN17QArrayDataPointerIDsE5derefEv.exit.i.i3.i:   ; preds = %15
  %18 = atomicrmw sub ptr %17, i32 1 seq_cst, align 4
  %.not.i.i4.i = icmp eq i32 %18, 1
  br i1 %.not.i.i4.i, label %19, label %_ZN7QStringD2Ev.exit5.i

19:                                               ; preds = %_ZN17QArrayDataPointerIDsE5derefEv.exit.i.i3.i
  %20 = load ptr, ptr %2, align 8
  call void @_ZN10QArrayData10deallocateEPS_xx(ptr noundef %20, i64 noundef 2, i64 noundef 8) #22
  br label %_ZN7QStringD2Ev.exit5.i

_ZN7QStringD2Ev.exit5.i:                          ; preds = %19, %_ZN17QArrayDataPointerIDsE5derefEv.exit.i.i3.i, %15
  resume { ptr, i32 } %16

_ZN16FunnelTextDialog7getTextEv.exit:             ; preds = %10, %_ZN17QArrayDataPointerIDsE5derefEv.exit.i.i.i, %13
  call void @llvm.lifetime.end.p0(i64 24, ptr nonnull %2)
  br label %21

21:                                               ; preds = %1, %_ZN16FunnelTextDialog7getTextEv.exit
  %.0 = phi ptr [ %9, %_ZN16FunnelTextDialog7getTextEv.exit ], [ null, %1 ]
  ret ptr %.0
}